(dp0
S'Ru'
p1
I44
sS'Re'
p2
I75
sS'Rf'
p3
I104
sS'Rg'
p4
I111
sS'Ra'
p5
I88
sS'Rb'
p6
I37
sS'Rn'
p7
I86
sS'Rh'
p8
I45
sS'Be'
p9
I4
sS'Ba'
p10
I56
sS'Bh'
p11
I107
sS'Bi'
p12
I83
sS'Bk'
p13
I97
sS'Br'
p14
I35
sS'Uuh'
p15
I116
sS'H'
p16
I1
sS'P'
p17
I15
sS'Os'
p18
I76
sS'Es'
p19
I99
sS'Hg'
p20
I80
sS'Ge'
p21
I32
sS'Gd'
p22
I64
sS'Ga'
p23
I31
sS'Pr'
p24
I59
sS'Pt'
p25
I78
sS'Pu'
p26
I94
sS'C'
p27
I6
sS'Pb'
p28
I82
sS'Pa'
p29
I91
sS'Pd'
p30
I46
sS'Cd'
p31
I48
sS'Po'
p32
I84
sS'Pm'
p33
I61
sS'Hs'
p34
I108
sS'Uuq'
p35
I114
sS'Uup'
p36
I115
sS'Uus'
p37
I117
sS'Uuo'
p38
I118
sS'Ho'
p39
I67
sS'Hf'
p40
I72
sS'K'
p41
I19
sS'He'
p42
I2
sS'Md'
p43
I101
sS'Mg'
p44
I12
sS'Mo'
p45
I42
sS'Mn'
p46
I25
sS'O'
p47
I8
sS'Mt'
p48
I109
sS'S'
p49
I16
sS'W'
p50
I74
sS'Zn'
p51
I30
sS'Eu'
p52
I63
sS'Zr'
p53
I40
sS'Er'
p54
I68
sS'Ni'
p55
I28
sS'No'
p56
I102
sS'Na'
p57
I11
sS'Nb'
p58
I41
sS'Nd'
p59
I60
sS'Ne'
p60
I10
sS'Np'
p61
I93
sS'Fr'
p62
I87
sS'Fe'
p63
I26
sS'Fm'
p64
I100
sS'B'
p65
I5
sS'F'
p66
I9
sS'Sr'
p67
I38
sS'N'
p68
I7
sS'Kr'
p69
I36
sS'Si'
p70
I14
sS'Sn'
p71
I50
sS'Sm'
p72
I62
sS'V'
p73
I23
sS'Sc'
p74
I21
sS'Sb'
p75
I51
sS'Sg'
p76
I106
sS'Se'
p77
I34
sS'Co'
p78
I27
sS'Cn'
p79
I112
sS'Cm'
p80
I96
sS'Cl'
p81
I17
sS'Ca'
p82
I20
sS'Cf'
p83
I98
sS'Ce'
p84
I58
sS'Xe'
p85
I54
sS'Lu'
p86
I71
sS'Cs'
p87
I55
sS'Cr'
p88
I24
sS'Cu'
p89
I29
sS'La'
p90
I57
sS'Li'
p91
I3
sS'Tl'
p92
I81
sS'Tm'
p93
I69
sS'Lr'
p94
I103
sS'Th'
p95
I90
sS'Ti'
p96
I22
sS'Te'
p97
I52
sS'Tb'
p98
I65
sS'Tc'
p99
I43
sS'Ta'
p100
I73
sS'Yb'
p101
I70
sS'Db'
p102
I105
sS'Dy'
p103
I66
sS'Ds'
p104
I110
sS'I'
p105
I53
sS'U'
p106
I92
sS'Y'
p107
I39
sS'Ac'
p108
I89
sS'Ag'
p109
I47
sS'Uut'
p110
I113
sS'Ir'
p111
I77
sS'Am'
p112
I95
sS'Al'
p113
I13
sS'As'
p114
I33
sS'Ar'
p115
I18
sS'Au'
p116
I79
sS'At'
p117
I85
sS'In'
p118
I49
s.